ccopy_reg
_reconstructor
p0
(cdedupe.datamodel
DataModel
p1
c__builtin__
object
p2
Ntp3
Rp4
(dp5
S'primary_fields'
p6
(lp7
g0
(cdedupe.variables.string
StringType
p8
g2
Ntp9
Rp10
(dp11
S'predicates'
p12
(lp13
g0
(cdedupe.predicates
StringPredicate
p14
g2
Ntp15
Rp16
(dp17
S'_cached_hash'
p18
I-2619007129665614482
sS'__name__'
p19
S'(wholeFieldPredicate, Ln)'
p20
sS'func'
p21
cdedupe.predicates
wholeFieldPredicate
p22
sS'field'
p23
S'Ln'
p24
sbag0
(g14
g2
Ntp25
Rp26
(dp27
g18
I8169496684385934796
sg19
S'(firstTokenPredicate, Ln)'
p28
sg21
cdedupe.predicates
firstTokenPredicate
p29
sg23
g24
sbag0
(g14
g2
Ntp30
Rp31
(dp32
g18
I-291820129697531645
sg19
S'(commonIntegerPredicate, Ln)'
p33
sg21
cdedupe.predicates
commonIntegerPredicate
p34
sg23
g24
sbag0
(g14
g2
Ntp35
Rp36
(dp37
g18
I-4358168483035564424
sg19
S'(nearIntegersPredicate, Ln)'
p38
sg21
cdedupe.predicates
nearIntegersPredicate
p39
sg23
g24
sbag0
(g14
g2
Ntp40
Rp41
(dp42
g18
I2567549120327672223
sg19
S'(firstIntegerPredicate, Ln)'
p43
sg21
cdedupe.predicates
firstIntegerPredicate
p44
sg23
g24
sbag0
(g14
g2
Ntp45
Rp46
(dp47
g18
I5621718956797474342
sg19
S'(alphaNumericPredicate, Ln)'
p48
sg21
cdedupe.predicates
alphaNumericPredicate
p49
sg23
g24
sbag0
(g14
g2
Ntp50
Rp51
(dp52
g18
I-8704944921448263329
sg19
S'(sameThreeCharStartPredicate, Ln)'
p53
sg21
cdedupe.predicates
sameThreeCharStartPredicate
p54
sg23
g24
sbag0
(g14
g2
Ntp55
Rp56
(dp57
g18
I3839288829270643106
sg19
S'(sameFiveCharStartPredicate, Ln)'
p58
sg21
cdedupe.predicates
sameFiveCharStartPredicate
p59
sg23
g24
sbag0
(g14
g2
Ntp60
Rp61
(dp62
g18
I4434797357819461886
sg19
S'(sameSevenCharStartPredicate, Ln)'
p63
sg21
cdedupe.predicates
sameSevenCharStartPredicate
p64
sg23
g24
sbag0
(g14
g2
Ntp65
Rp66
(dp67
g18
I-7152257026372515901
sg19
S'(commonTwoTokens, Ln)'
p68
sg21
cdedupe.predicates
commonTwoTokens
p69
sg23
g24
sbag0
(g14
g2
Ntp70
Rp71
(dp72
g18
I6080417833066623955
sg19
S'(commonThreeTokens, Ln)'
p73
sg21
cdedupe.predicates
commonThreeTokens
p74
sg23
g24
sbag0
(g14
g2
Ntp75
Rp76
(dp77
g18
I-4680060929574082508
sg19
S'(fingerprint, Ln)'
p78
sg21
cdedupe.predicates
fingerprint
p79
sg23
g24
sbag0
(g14
g2
Ntp80
Rp81
(dp82
g18
I-2008255114180826420
sg19
S'(oneGramFingerprint, Ln)'
p83
sg21
cdedupe.predicates
oneGramFingerprint
p84
sg23
g24
sbag0
(g14
g2
Ntp85
Rp86
(dp87
g18
I2446504375004517302
sg19
S'(twoGramFingerprint, Ln)'
p88
sg21
cdedupe.predicates
twoGramFingerprint
p89
sg23
g24
sbag0
(g14
g2
Ntp90
Rp91
(dp92
g18
I7841173806882228060
sg19
S'(sortedAcronym, Ln)'
p93
sg21
cdedupe.predicates
sortedAcronym
p94
sg23
g24
sbag0
(g14
g2
Ntp95
Rp96
(dp97
g18
I-3570405027568792493
sg19
S'(commonFourGram, Ln)'
p98
sg21
cdedupe.predicates
commonFourGram
p99
sg23
g24
sbag0
(g14
g2
Ntp100
Rp101
(dp102
g18
I-2393571736928547246
sg19
S'(commonSixGram, Ln)'
p103
sg21
cdedupe.predicates
commonSixGram
p104
sg23
g24
sbag0
(g14
g2
Ntp105
Rp106
(dp107
g18
I-3985192845081888820
sg19
S'(tokenFieldPredicate, Ln)'
p108
sg21
cdedupe.predicates
tokenFieldPredicate
p109
sg23
g24
sbag0
(g14
g2
Ntp110
Rp111
(dp112
g18
I-423527112860028874
sg19
S'(suffixArray, Ln)'
p113
sg21
cdedupe.predicates
suffixArray
p114
sg23
g24
sbag0
(g14
g2
Ntp115
Rp116
(dp117
g18
I7325450775710447092
sg19
S'(doubleMetaphone, Ln)'
p118
sg21
cdedupe.predicates
doubleMetaphone
p119
sg23
g24
sbag0
(g14
g2
Ntp120
Rp121
(dp122
g18
I7728718110279904509
sg19
S'(metaphoneToken, Ln)'
p123
sg21
cdedupe.predicates
metaphoneToken
p124
sg23
g24
sbag0
(cdedupe.predicates
TfidfNGramCanopyPredicate
p125
g2
Ntp126
Rp127
(dp128
S'threshold'
p129
F0.2
sg19
S'(0.2, Ln)'
p130
sg23
g24
sbag0
(g125
g2
Ntp131
Rp132
(dp133
g129
F0.4
sg19
S'(0.4, Ln)'
p134
sg23
g24
sbag0
(g125
g2
Ntp135
Rp136
(dp137
g129
F0.6
sg19
S'(0.6, Ln)'
p138
sg23
g24
sbag0
(g125
g2
Ntp139
Rp140
(dp141
g129
F0.8
sg19
S'(0.8, Ln)'
p142
sg23
g24
sbag0
(cdedupe.predicates
TfidfNGramSearchPredicate
p143
g2
Ntp144
Rp145
(dp146
g129
F0.2
sg19
S'(0.2, Ln)'
p147
sg23
g24
sbag0
(g143
g2
Ntp148
Rp149
(dp150
g129
F0.4
sg19
S'(0.4, Ln)'
p151
sg23
g24
sbag0
(g143
g2
Ntp152
Rp153
(dp154
g129
F0.6
sg19
S'(0.6, Ln)'
p155
sg23
g24
sbag0
(g143
g2
Ntp156
Rp157
(dp158
g129
F0.8
sg19
S'(0.8, Ln)'
p159
sg23
g24
sbag0
(cdedupe.predicates
TfidfTextCanopyPredicate
p160
g2
Ntp161
Rp162
(dp163
g129
F0.2
sg19
S'(0.2, Ln)'
p164
sg23
g24
sbag0
(g160
g2
Ntp165
Rp166
(dp167
g129
F0.4
sg19
S'(0.4, Ln)'
p168
sg23
g24
sbag0
(g160
g2
Ntp169
Rp170
(dp171
g129
F0.6
sg19
S'(0.6, Ln)'
p172
sg23
g24
sbag0
(g160
g2
Ntp173
Rp174
(dp175
g129
F0.8
sg19
S'(0.8, Ln)'
p176
sg23
g24
sbag0
(cdedupe.predicates
TfidfTextSearchPredicate
p177
g2
Ntp178
Rp179
(dp180
g129
F0.2
sg19
S'(0.2, Ln)'
p181
sg23
g24
sbag0
(g177
g2
Ntp182
Rp183
(dp184
g129
F0.4
sg19
S'(0.4, Ln)'
p185
sg23
g24
sbag0
(g177
g2
Ntp186
Rp187
(dp188
g129
F0.6
sg19
S'(0.6, Ln)'
p189
sg23
g24
sbag0
(g177
g2
Ntp190
Rp191
(dp192
g129
F0.8
sg19
S'(0.8, Ln)'
p193
sg23
g24
sbag0
(cdedupe.predicates
LevenshteinCanopyPredicate
p194
g2
Ntp195
Rp196
(dp197
g129
I1
sg19
S'(1, Ln)'
p198
sg23
g24
sbag0
(g194
g2
Ntp199
Rp200
(dp201
g129
I2
sg19
S'(2, Ln)'
p202
sg23
g24
sbag0
(g194
g2
Ntp203
Rp204
(dp205
g129
I3
sg19
S'(3, Ln)'
p206
sg23
g24
sbag0
(g194
g2
Ntp207
Rp208
(dp209
g129
I4
sg19
S'(4, Ln)'
p210
sg23
g24
sbag0
(cdedupe.predicates
LevenshteinSearchPredicate
p211
g2
Ntp212
Rp213
(dp214
g129
I1
sg19
S'(1, Ln)'
p215
sg23
g24
sbag0
(g211
g2
Ntp216
Rp217
(dp218
g129
I2
sg19
S'(2, Ln)'
p219
sg23
g24
sbag0
(g211
g2
Ntp220
Rp221
(dp222
g129
I3
sg19
S'(3, Ln)'
p223
sg23
g24
sbag0
(g211
g2
Ntp224
Rp225
(dp226
g129
I4
sg19
S'(4, Ln)'
p227
sg23
g24
sbasg23
g24
sS'name'
p228
S'(Ln: String)'
p229
sS'has_missing'
p230
I00
sS'comparator'
p231
caffinegap.affinegap
normalizedAffineGapDistance
p232
sbag0
(g8
g2
Ntp233
Rp234
(dp235
g12
(lp236
g0
(g14
g2
Ntp237
Rp238
(dp239
g18
I3950248985100391314
sg19
S'(wholeFieldPredicate, dob)'
p240
sg21
g22
sg23
S'dob'
p241
sbag0
(g14
g2
Ntp242
Rp243
(dp244
g18
I8538095385231728672
sg19
S'(firstTokenPredicate, dob)'
p245
sg21
g29
sg23
g241
sbag0
(g14
g2
Ntp246
Rp247
(dp248
g18
I-8853993056895685347
sg19
S'(commonIntegerPredicate, dob)'
p249
sg21
g34
sg23
g241
sbag0
(g14
g2
Ntp250
Rp251
(dp252
g18
I-3589335688483102204
sg19
S'(nearIntegersPredicate, dob)'
p253
sg21
g39
sg23
g241
sbag0
(g14
g2
Ntp254
Rp255
(dp256
g18
I-5484299598200413151
sg19
S'(firstIntegerPredicate, dob)'
p257
sg21
g44
sg23
g241
sbag0
(g14
g2
Ntp258
Rp259
(dp260
g18
I1438657843985586634
sg19
S'(alphaNumericPredicate, dob)'
p261
sg21
g49
sg23
g241
sbag0
(g14
g2
Ntp262
Rp263
(dp264
g18
I-4741466859100958835
sg19
S'(sameThreeCharStartPredicate, dob)'
p265
sg21
g54
sg23
g241
sbag0
(g14
g2
Ntp266
Rp267
(dp268
g18
I-7603538890680805346
sg19
S'(sameFiveCharStartPredicate, dob)'
p269
sg21
g59
sg23
g241
sbag0
(g14
g2
Ntp270
Rp271
(dp272
g18
I4919378022127383378
sg19
S'(sameSevenCharStartPredicate, dob)'
p273
sg21
g64
sg23
g241
sbag0
(g14
g2
Ntp274
Rp275
(dp276
g18
I-9083803632742785775
sg19
S'(commonTwoTokens, dob)'
p277
sg21
g69
sg23
g241
sbag0
(g14
g2
Ntp278
Rp279
(dp280
g18
I-1260854946548243459
sg19
S'(commonThreeTokens, dob)'
p281
sg21
g74
sg23
g241
sbag0
(g14
g2
Ntp282
Rp283
(dp284
g18
I8468774977845246648
sg19
S'(fingerprint, dob)'
p285
sg21
g79
sg23
g241
sbag0
(g14
g2
Ntp286
Rp287
(dp288
g18
I4548231368869299740
sg19
S'(oneGramFingerprint, dob)'
p289
sg21
g84
sg23
g241
sbag0
(g14
g2
Ntp290
Rp291
(dp292
g18
I-3058113306816173414
sg19
S'(twoGramFingerprint, dob)'
p293
sg21
g89
sg23
g241
sbag0
(g14
g2
Ntp294
Rp295
(dp296
g18
I-2620113145543282272
sg19
S'(sortedAcronym, dob)'
p297
sg21
g94
sg23
g241
sbag0
(g14
g2
Ntp298
Rp299
(dp300
g18
I-5976278316734547939
sg19
S'(commonFourGram, dob)'
p301
sg21
g99
sg23
g241
sbag0
(g14
g2
Ntp302
Rp303
(dp304
g18
I2359935425879293470
sg19
S'(commonSixGram, dob)'
p305
sg21
g104
sg23
g241
sbag0
(g14
g2
Ntp306
Rp307
(dp308
g18
I8235422860158004768
sg19
S'(tokenFieldPredicate, dob)'
p309
sg21
g109
sg23
g241
sbag0
(g14
g2
Ntp310
Rp311
(dp312
g18
I-4032926143753087030
sg19
S'(suffixArray, dob)'
p313
sg21
g114
sg23
g241
sbag0
(g14
g2
Ntp314
Rp315
(dp316
g18
I-9127657248088544440
sg19
S'(doubleMetaphone, dob)'
p317
sg21
g119
sg23
g241
sbag0
(g14
g2
Ntp318
Rp319
(dp320
g18
I1358262555699745667
sg19
S'(metaphoneToken, dob)'
p321
sg21
g124
sg23
g241
sbag0
(g125
g2
Ntp322
Rp323
(dp324
g129
F0.2
sg19
S'(0.2, dob)'
p325
sg23
g241
sbag0
(g125
g2
Ntp326
Rp327
(dp328
g129
F0.4
sg19
S'(0.4, dob)'
p329
sg23
g241
sbag0
(g125
g2
Ntp330
Rp331
(dp332
g129
F0.6
sg19
S'(0.6, dob)'
p333
sg23
g241
sbag0
(g125
g2
Ntp334
Rp335
(dp336
g129
F0.8
sg19
S'(0.8, dob)'
p337
sg23
g241
sbag0
(g143
g2
Ntp338
Rp339
(dp340
g129
F0.2
sg19
S'(0.2, dob)'
p341
sg23
g241
sbag0
(g143
g2
Ntp342
Rp343
(dp344
g129
F0.4
sg19
S'(0.4, dob)'
p345
sg23
g241
sbag0
(g143
g2
Ntp346
Rp347
(dp348
g129
F0.6
sg19
S'(0.6, dob)'
p349
sg23
g241
sbag0
(g143
g2
Ntp350
Rp351
(dp352
g129
F0.8
sg19
S'(0.8, dob)'
p353
sg23
g241
sbag0
(g160
g2
Ntp354
Rp355
(dp356
g129
F0.2
sg19
S'(0.2, dob)'
p357
sg23
g241
sbag0
(g160
g2
Ntp358
Rp359
(dp360
g129
F0.4
sg19
S'(0.4, dob)'
p361
sg23
g241
sbag0
(g160
g2
Ntp362
Rp363
(dp364
g129
F0.6
sg19
S'(0.6, dob)'
p365
sg23
g241
sbag0
(g160
g2
Ntp366
Rp367
(dp368
g129
F0.8
sg19
S'(0.8, dob)'
p369
sg23
g241
sbag0
(g177
g2
Ntp370
Rp371
(dp372
g129
F0.2
sg19
S'(0.2, dob)'
p373
sg23
g241
sbag0
(g177
g2
Ntp374
Rp375
(dp376
g129
F0.4
sg19
S'(0.4, dob)'
p377
sg23
g241
sbag0
(g177
g2
Ntp378
Rp379
(dp380
g129
F0.6
sg19
S'(0.6, dob)'
p381
sg23
g241
sbag0
(g177
g2
Ntp382
Rp383
(dp384
g129
F0.8
sg19
S'(0.8, dob)'
p385
sg23
g241
sbag0
(g194
g2
Ntp386
Rp387
(dp388
g129
I1
sg19
S'(1, dob)'
p389
sg23
g241
sbag0
(g194
g2
Ntp390
Rp391
(dp392
g129
I2
sg19
S'(2, dob)'
p393
sg23
g241
sbag0
(g194
g2
Ntp394
Rp395
(dp396
g129
I3
sg19
S'(3, dob)'
p397
sg23
g241
sbag0
(g194
g2
Ntp398
Rp399
(dp400
g129
I4
sg19
S'(4, dob)'
p401
sg23
g241
sbag0
(g211
g2
Ntp402
Rp403
(dp404
g129
I1
sg19
S'(1, dob)'
p405
sg23
g241
sbag0
(g211
g2
Ntp406
Rp407
(dp408
g129
I2
sg19
S'(2, dob)'
p409
sg23
g241
sbag0
(g211
g2
Ntp410
Rp411
(dp412
g129
I3
sg19
S'(3, dob)'
p413
sg23
g241
sbag0
(g211
g2
Ntp414
Rp415
(dp416
g129
I4
sg19
S'(4, dob)'
p417
sg23
g241
sbasg23
g241
sg228
S'(dob: String)'
p418
sg230
I00
sg231
g232
sbag0
(g8
g2
Ntp419
Rp420
(dp421
g12
(lp422
g0
(g14
g2
Ntp423
Rp424
(dp425
g18
I-2618986129539614295
sg19
S'(wholeFieldPredicate, gn)'
p426
sg21
g22
sg23
S'gn'
p427
sbag0
(g14
g2
Ntp428
Rp429
(dp430
g18
I8169457684287934859
sg19
S'(firstTokenPredicate, gn)'
p431
sg21
g29
sg23
g427
sbag0
(g14
g2
Ntp432
Rp433
(dp434
g18
I-291779129539531532
sg19
S'(commonIntegerPredicate, gn)'
p435
sg21
g34
sg23
g427
sbag0
(g14
g2
Ntp436
Rp437
(dp438
g18
I-4358147482909564225
sg19
S'(nearIntegersPredicate, gn)'
p439
sg21
g39
sg23
g427
sbag0
(g14
g2
Ntp440
Rp441
(dp442
g18
I2567592120457672216
sg19
S'(firstIntegerPredicate, gn)'
p443
sg21
g44
sg23
g427
sbag0
(g14
g2
Ntp444
Rp445
(dp446
g18
I5621759957179475113
sg19
S'(alphaNumericPredicate, gn)'
p447
sg21
g49
sg23
g427
sbag0
(g14
g2
Ntp448
Rp449
(dp450
g18
I-8704905921286263216
sg19
S'(sameThreeCharStartPredicate, gn)'
p451
sg21
g54
sg23
g427
sbag0
(g14
g2
Ntp452
Rp453
(dp454
g18
I3839267829144642917
sg19
S'(sameFiveCharStartPredicate, gn)'
p455
sg21
g59
sg23
g427
sbag0
(g14
g2
Ntp456
Rp457
(dp458
g18
I4434770357657461609
sg19
S'(sameSevenCharStartPredicate, gn)'
p459
sg21
g64
sg23
g427
sbag0
(g14
g2
Ntp460
Rp461
(dp462
g18
I-7152234026242515700
sg19
S'(commonTwoTokens, gn)'
p463
sg21
g69
sg23
g427
sbag0
(g14
g2
Ntp464
Rp465
(dp466
g18
I6080380832716623236
sg19
S'(commonThreeTokens, gn)'
p467
sg21
g74
sg23
g427
sbag0
(g14
g2
Ntp468
Rp469
(dp470
g18
I-4680099929736082637
sg19
S'(fingerprint, gn)'
p471
sg21
g79
sg23
g427
sbag0
(g14
g2
Ntp472
Rp473
(dp474
g18
I-2008232114050826237
sg19
S'(oneGramFingerprint, gn)'
p475
sg21
g84
sg23
g427
sbag0
(g14
g2
Ntp476
Rp477
(dp478
g18
I2446547375390518073
sg19
S'(twoGramFingerprint, gn)'
p479
sg21
g89
sg23
g427
sbag0
(g14
g2
Ntp480
Rp481
(dp482
g18
I7841146806720227795
sg19
S'(sortedAcronym, gn)'
p483
sg21
g94
sg23
g427
sbag0
(g14
g2
Ntp484
Rp485
(dp486
g18
I-3570380027474792428
sg19
S'(commonFourGram, gn)'
p487
sg21
g99
sg23
g427
sbag0
(g14
g2
Ntp488
Rp489
(dp490
g18
I-2393546736834547179
sg19
S'(commonSixGram, gn)'
p491
sg21
g104
sg23
g427
sbag0
(g14
g2
Ntp492
Rp493
(dp494
g18
I-3985231845179888757
sg19
S'(tokenFieldPredicate, gn)'
p495
sg21
g109
sg23
g427
sbag0
(g14
g2
Ntp496
Rp497
(dp498
g18
I-423506112734028687
sg19
S'(suffixArray, gn)'
p499
sg21
g114
sg23
g427
sbag0
(g14
g2
Ntp500
Rp501
(dp502
g18
I7325411775356446395
sg19
S'(doubleMetaphone, gn)'
p503
sg21
g119
sg23
g427
sbag0
(g14
g2
Ntp504
Rp505
(dp506
g18
I7728755110629905202
sg19
S'(metaphoneToken, gn)'
p507
sg21
g124
sg23
g427
sbag0
(g125
g2
Ntp508
Rp509
(dp510
g129
F0.2
sg19
S'(0.2, gn)'
p511
sg23
g427
sbag0
(g125
g2
Ntp512
Rp513
(dp514
g129
F0.4
sg19
S'(0.4, gn)'
p515
sg23
g427
sbag0
(g125
g2
Ntp516
Rp517
(dp518
g129
F0.6
sg19
S'(0.6, gn)'
p519
sg23
g427
sbag0
(g125
g2
Ntp520
Rp521
(dp522
g129
F0.8
sg19
S'(0.8, gn)'
p523
sg23
g427
sbag0
(g143
g2
Ntp524
Rp525
(dp526
g129
F0.2
sg19
S'(0.2, gn)'
p527
sg23
g427
sbag0
(g143
g2
Ntp528
Rp529
(dp530
g129
F0.4
sg19
S'(0.4, gn)'
p531
sg23
g427
sbag0
(g143
g2
Ntp532
Rp533
(dp534
g129
F0.6
sg19
S'(0.6, gn)'
p535
sg23
g427
sbag0
(g143
g2
Ntp536
Rp537
(dp538
g129
F0.8
sg19
S'(0.8, gn)'
p539
sg23
g427
sbag0
(g160
g2
Ntp540
Rp541
(dp542
g129
F0.2
sg19
S'(0.2, gn)'
p543
sg23
g427
sbag0
(g160
g2
Ntp544
Rp545
(dp546
g129
F0.4
sg19
S'(0.4, gn)'
p547
sg23
g427
sbag0
(g160
g2
Ntp548
Rp549
(dp550
g129
F0.6
sg19
S'(0.6, gn)'
p551
sg23
g427
sbag0
(g160
g2
Ntp552
Rp553
(dp554
g129
F0.8
sg19
S'(0.8, gn)'
p555
sg23
g427
sbag0
(g177
g2
Ntp556
Rp557
(dp558
g129
F0.2
sg19
S'(0.2, gn)'
p559
sg23
g427
sbag0
(g177
g2
Ntp560
Rp561
(dp562
g129
F0.4
sg19
S'(0.4, gn)'
p563
sg23
g427
sbag0
(g177
g2
Ntp564
Rp565
(dp566
g129
F0.6
sg19
S'(0.6, gn)'
p567
sg23
g427
sbag0
(g177
g2
Ntp568
Rp569
(dp570
g129
F0.8
sg19
S'(0.8, gn)'
p571
sg23
g427
sbag0
(g194
g2
Ntp572
Rp573
(dp574
g129
I1
sg19
S'(1, gn)'
p575
sg23
g427
sbag0
(g194
g2
Ntp576
Rp577
(dp578
g129
I2
sg19
S'(2, gn)'
p579
sg23
g427
sbag0
(g194
g2
Ntp580
Rp581
(dp582
g129
I3
sg19
S'(3, gn)'
p583
sg23
g427
sbag0
(g194
g2
Ntp584
Rp585
(dp586
g129
I4
sg19
S'(4, gn)'
p587
sg23
g427
sbag0
(g211
g2
Ntp588
Rp589
(dp590
g129
I1
sg19
S'(1, gn)'
p591
sg23
g427
sbag0
(g211
g2
Ntp592
Rp593
(dp594
g129
I2
sg19
S'(2, gn)'
p595
sg23
g427
sbag0
(g211
g2
Ntp596
Rp597
(dp598
g129
I3
sg19
S'(3, gn)'
p599
sg23
g427
sbag0
(g211
g2
Ntp600
Rp601
(dp602
g129
I4
sg19
S'(4, gn)'
p603
sg23
g427
sbasg23
g427
sg228
S'(gn: String)'
p604
sg230
I00
sg231
g232
sbag0
(g8
g2
Ntp605
Rp606
(dp607
g12
(lp608
g0
(g14
g2
Ntp609
Rp610
(dp611
g18
I-2618985129409613916
sg19
S'(wholeFieldPredicate, fn)'
p612
sg21
g22
sg23
S'fn'
p613
sbag0
(g14
g2
Ntp614
Rp615
(dp616
g18
I8169458684161934470
sg19
S'(firstTokenPredicate, fn)'
p617
sg21
g29
sg23
g613
sbag0
(g14
g2
Ntp618
Rp619
(dp620
g18
I-291778129441531255
sg19
S'(commonIntegerPredicate, fn)'
p621
sg21
g34
sg23
g613
sbag0
(g14
g2
Ntp622
Rp623
(dp624
g18
I-4358146482779563854
sg19
S'(nearIntegersPredicate, fn)'
p625
sg21
g39
sg23
g613
sbag0
(g14
g2
Ntp626
Rp627
(dp628
g18
I2567591120551672517
sg19
S'(firstIntegerPredicate, fn)'
p629
sg21
g44
sg23
g613
sbag0
(g14
g2
Ntp630
Rp631
(dp632
g18
I5621760957053474732
sg19
S'(alphaNumericPredicate, fn)'
p633
sg21
g49
sg23
g613
sbag0
(g14
g2
Ntp634
Rp635
(dp636
g18
I-8704906921416263595
sg19
S'(sameThreeCharStartPredicate, fn)'
p637
sg21
g54
sg23
g613
sbag0
(g14
g2
Ntp638
Rp639
(dp640
g18
I3839266829238643256
sg19
S'(sameFiveCharStartPredicate, fn)'
p641
sg21
g59
sg23
g613
sbag0
(g14
g2
Ntp642
Rp643
(dp644
g18
I4434771357787462004
sg19
S'(sameSevenCharStartPredicate, fn)'
p645
sg21
g64
sg23
g613
sbag0
(g14
g2
Ntp646
Rp647
(dp648
g18
I-7152235026372516087
sg19
S'(commonTwoTokens, fn)'
p649
sg21
g69
sg23
g613
sbag0
(g14
g2
Ntp650
Rp651
(dp652
g18
I6080379832842623625
sg19
S'(commonThreeTokens, fn)'
p653
sg21
g74
sg23
g613
sbag0
(g14
g2
Ntp654
Rp655
(dp656
g18
I-4680098929862083010
sg19
S'(fingerprint, fn)'
p657
sg21
g79
sg23
g613
sbag0
(g14
g2
Ntp658
Rp659
(dp660
g18
I-2008233114180826618
sg19
S'(oneGramFingerprint, fn)'
p661
sg21
g84
sg23
g613
sbag0
(g14
g2
Ntp662
Rp663
(dp664
g18
I2446546375260517692
sg19
S'(twoGramFingerprint, fn)'
p665
sg21
g89
sg23
g613
sbag0
(g14
g2
Ntp666
Rp667
(dp668
g18
I7841147806594227414
sg19
S'(sortedAcronym, fn)'
p669
sg21
g94
sg23
g613
sbag0
(g14
g2
Ntp670
Rp671
(dp672
g18
I-3570379027344792039
sg19
S'(commonFourGram, fn)'
p673
sg21
g99
sg23
g613
sbag0
(g14
g2
Ntp674
Rp675
(dp676
g18
I-2393545736704546792
sg19
S'(commonSixGram, fn)'
p677
sg21
g104
sg23
g613
sbag0
(g14
g2
Ntp678
Rp679
(dp680
g18
I-3985230845305889146
sg19
S'(tokenFieldPredicate, fn)'
p681
sg21
g109
sg23
g613
sbag0
(g14
g2
Ntp682
Rp683
(dp684
g18
I-423505112860029060
sg19
S'(suffixArray, fn)'
p685
sg21
g114
sg23
g613
sbag0
(g14
g2
Ntp686
Rp687
(dp688
g18
I7325412775486446782
sg19
S'(doubleMetaphone, fn)'
p689
sg21
g119
sg23
g613
sbag0
(g14
g2
Ntp690
Rp691
(dp692
g18
I7728756110503904823
sg19
S'(metaphoneToken, fn)'
p693
sg21
g124
sg23
g613
sbag0
(g125
g2
Ntp694
Rp695
(dp696
g129
F0.2
sg19
S'(0.2, fn)'
p697
sg23
g613
sbag0
(g125
g2
Ntp698
Rp699
(dp700
g129
F0.4
sg19
S'(0.4, fn)'
p701
sg23
g613
sbag0
(g125
g2
Ntp702
Rp703
(dp704
g129
F0.6
sg19
S'(0.6, fn)'
p705
sg23
g613
sbag0
(g125
g2
Ntp706
Rp707
(dp708
g129
F0.8
sg19
S'(0.8, fn)'
p709
sg23
g613
sbag0
(g143
g2
Ntp710
Rp711
(dp712
g129
F0.2
sg19
S'(0.2, fn)'
p713
sg23
g613
sbag0
(g143
g2
Ntp714
Rp715
(dp716
g129
F0.4
sg19
S'(0.4, fn)'
p717
sg23
g613
sbag0
(g143
g2
Ntp718
Rp719
(dp720
g129
F0.6
sg19
S'(0.6, fn)'
p721
sg23
g613
sbag0
(g143
g2
Ntp722
Rp723
(dp724
g129
F0.8
sg19
S'(0.8, fn)'
p725
sg23
g613
sbag0
(g160
g2
Ntp726
Rp727
(dp728
g129
F0.2
sg19
S'(0.2, fn)'
p729
sg23
g613
sbag0
(g160
g2
Ntp730
Rp731
(dp732
g129
F0.4
sg19
S'(0.4, fn)'
p733
sg23
g613
sbag0
(g160
g2
Ntp734
Rp735
(dp736
g129
F0.6
sg19
S'(0.6, fn)'
p737
sg23
g613
sbag0
(g160
g2
Ntp738
Rp739
(dp740
g129
F0.8
sg19
S'(0.8, fn)'
p741
sg23
g613
sbag0
(g177
g2
Ntp742
Rp743
(dp744
g129
F0.2
sg19
S'(0.2, fn)'
p745
sg23
g613
sbag0
(g177
g2
Ntp746
Rp747
(dp748
g129
F0.4
sg19
S'(0.4, fn)'
p749
sg23
g613
sbag0
(g177
g2
Ntp750
Rp751
(dp752
g129
F0.6
sg19
S'(0.6, fn)'
p753
sg23
g613
sbag0
(g177
g2
Ntp754
Rp755
(dp756
g129
F0.8
sg19
S'(0.8, fn)'
p757
sg23
g613
sbag0
(g194
g2
Ntp758
Rp759
(dp760
g129
I1
sg19
S'(1, fn)'
p761
sg23
g613
sbag0
(g194
g2
Ntp762
Rp763
(dp764
g129
I2
sg19
S'(2, fn)'
p765
sg23
g613
sbag0
(g194
g2
Ntp766
Rp767
(dp768
g129
I3
sg19
S'(3, fn)'
p769
sg23
g613
sbag0
(g194
g2
Ntp770
Rp771
(dp772
g129
I4
sg19
S'(4, fn)'
p773
sg23
g613
sbag0
(g211
g2
Ntp774
Rp775
(dp776
g129
I1
sg19
S'(1, fn)'
p777
sg23
g613
sbag0
(g211
g2
Ntp778
Rp779
(dp780
g129
I2
sg19
S'(2, fn)'
p781
sg23
g613
sbag0
(g211
g2
Ntp782
Rp783
(dp784
g129
I3
sg19
S'(3, fn)'
p785
sg23
g613
sbag0
(g211
g2
Ntp786
Rp787
(dp788
g129
I4
sg19
S'(4, fn)'
p789
sg23
g613
sbasg23
g613
sg228
S'(fn: String)'
p790
sg230
I00
sg231
g232
sbasS'_variables'
p791
(lp792
g10
ag234
ag420
ag606
asS'_missing_field_indices'
p793
(lp794
sS'_derived_start'
p795
I4
sS'_interaction_indices'
p796
(lp797
sb.ccopy_reg
_reconstructor
p0
(crlr.lr
RegularizedLogisticRegression
p1
c__builtin__
object
p2
Ntp3
Rp4
(dp5
S'alpha'
p6
F0.1
sS'bias'
p7
cnumpy.core.multiarray
scalar
p8
(cnumpy
dtype
p9
(S'f8'
p10
I0
I1
tp11
Rp12
(I3
S'<'
p13
NNNI-1
I-1
I0
tp14
bS'N\xc6\x16A\xd5\x1c!@'
p15
tp16
Rp17
sS'num_cores'
p18
I0
sS'cv'
p19
I3
sS'weights'
p20
cnumpy.core.multiarray
_reconstruct
p21
(cnumpy
ndarray
p22
(I0
tp23
S'b'
p24
tp25
Rp26
(I1
(I4
tp27
g12
I00
S'\x02[}\x92\xd7\x1b\xfe\xbf\xbd}\xbe!\xb7k\x0f\xc0{\x03~\x9c\x9a\x8f\xea\xbf\xd3\xc0\xa7q\xa4\xe3\x01\xc0'
p28
tp29
bsb.(ccopy_reg
_reconstructor
p0
(cdedupe.predicates
CompoundPredicate
p1
c__builtin__
tuple
p2
(g0
(cdedupe.predicates
StringPredicate
p3
c__builtin__
object
p4
Ntp5
Rp6
(dp7
S'_cached_hash'
p8
I1438657843985586634
sS'__name__'
p9
S'(alphaNumericPredicate, dob)'
p10
sS'func'
p11
cdedupe.predicates
alphaNumericPredicate
p12
sS'field'
p13
S'dob'
p14
sbg0
(g3
g4
Ntp15
Rp16
(dp17
g8
I8169496684385934796
sg9
S'(firstTokenPredicate, Ln)'
p18
sg11
cdedupe.predicates
firstTokenPredicate
p19
sg13
S'Ln'
p20
sbtp21
tp22
Rp23
(dp24
S'count'
p25
F29.0
sbtp26
.